target datalayout = "e-m:e-p270:32:32-p271:32:32-p272:64:64-i64:64-i128:128-f80:128-n8:16:32:64-S128"
target triple = "x86_64-pc-linux-gnu"

@.str.105 = private unnamed_addr constant [29 x i8] c"<String too long to process>\00", align 1
@.str.106 = private unnamed_addr constant [16 x i8] c"<Not Specified>\00", align 1
@g_ascii_table = external constant ptr, align 8

; Function Attrs: null_pointer_is_valid sspstrong uwtable
define internal i32 @sss_string(ptr noundef %0, i32 noundef %1, ptr noundef %2, i32 noundef %3, i1 noundef zeroext %4, i32 noundef %5) #0 {
  %7 = alloca i32, align 4
  %8 = alloca ptr, align 8
  %9 = alloca i32, align 4
  %10 = alloca ptr, align 8
  %11 = alloca i32, align 4
  %12 = alloca i8, align 1
  %13 = alloca i32, align 4
  %14 = alloca i32, align 4
  %15 = alloca i32, align 4
  %16 = alloca [1024 x i8], align 16
  %17 = alloca i64, align 8
  %18 = alloca i8, align 1
  %19 = alloca i32, align 4
  %20 = alloca i32, align 4
  store ptr %0, ptr %8, align 8
  store i32 %1, ptr %9, align 4
  store ptr %2, ptr %10, align 8
  store i32 %3, ptr %11, align 4
  %21 = zext i1 %4 to i8
  store i8 %21, ptr %12, align 1
  store i32 %5, ptr %13, align 4
  call void @llvm.lifetime.start.p0(i64 4, ptr %14) #3
  %22 = load i32, ptr %11, align 4
  store i32 %22, ptr %14, align 4
  call void @llvm.lifetime.start.p0(i64 4, ptr %15) #3
  call void @llvm.lifetime.start.p0(i64 1024, ptr %16) #3
  call void @llvm.lifetime.start.p0(i64 8, ptr %17) #3
  store i64 0, ptr %17, align 8
  call void @llvm.lifetime.start.p0(i64 1, ptr %18) #3
  call void @llvm.lifetime.start.p0(i64 4, ptr %19) #3
  %23 = load i32, ptr %13, align 4
  %24 = icmp eq i32 %23, 0
  br i1 %24, label %25, label %39

25:                                               ; preds = %6
  %26 = load i8, ptr %12, align 1, !range !9, !noundef !10
  %27 = trunc i8 %26 to i1
  br i1 %27, label %28, label %32

28:                                               ; preds = %25
  %29 = load ptr, ptr %8, align 8
  %30 = load i32, ptr %14, align 4
  %31 = call i32 @tvb_get_letohl(ptr noundef %29, i32 noundef %30)
  store i32 %31, ptr %15, align 4
  br label %36

32:                                               ; preds = %25
  %33 = load ptr, ptr %8, align 8
  %34 = load i32, ptr %14, align 4
  %35 = call i32 @tvb_get_ntohl(ptr noundef %33, i32 noundef %34)
  store i32 %35, ptr %15, align 4
  br label %36

36:                                               ; preds = %32, %28
  %37 = load i32, ptr %14, align 4
  %38 = add i32 %37, 4
  store i32 %38, ptr %14, align 4
  br label %41

39:                                               ; preds = %6
  %40 = load i32, ptr %13, align 4
  store i32 %40, ptr %15, align 4
  br label %41

41:                                               ; preds = %39, %36
  %42 = load ptr, ptr %8, align 8
  %43 = load i32, ptr %14, align 4
  %44 = call i32 @tvb_captured_length_remaining(ptr noundef %42, i32 noundef %43)
  store i32 %44, ptr %19, align 4
  %45 = load i32, ptr %19, align 4
  %46 = icmp sle i32 %45, 0
  br i1 %46, label %47, label %49

47:                                               ; preds = %41
  %48 = load i32, ptr %14, align 4
  store i32 %48, ptr %7, align 4
  store i32 1, ptr %20, align 4
  br label %146

49:                                               ; preds = %41
  %50 = load i32, ptr %15, align 4
  %51 = load i32, ptr %19, align 4
  %52 = icmp ugt i32 %50, %51
  br i1 %52, label %57, label %53

53:                                               ; preds = %49
  %54 = load i32, ptr %15, align 4
  %55 = zext i32 %54 to i64
  %56 = icmp ugt i64 %55, 1023
  br i1 %56, label %57, label %69

57:                                               ; preds = %53, %49
  %58 = load ptr, ptr %10, align 8
  %59 = load i32, ptr %9, align 4
  %60 = load ptr, ptr %8, align 8
  %61 = load i32, ptr %14, align 4
  %62 = load i32, ptr %19, align 4
  %63 = add i32 %62, 4
  %64 = call ptr @proto_tree_add_string(ptr noundef %58, i32 noundef %59, ptr noundef %60, i32 noundef %61, i32 noundef %63, ptr noundef @.str.105)
  %65 = load i32, ptr %19, align 4
  %66 = load i32, ptr %14, align 4
  %67 = add i32 %66, %65
  store i32 %67, ptr %14, align 4
  %68 = load i32, ptr %14, align 4
  store i32 %68, ptr %7, align 4
  store i32 1, ptr %20, align 4
  br label %146

69:                                               ; preds = %53
  %70 = load i32, ptr %15, align 4
  %71 = icmp eq i32 %70, 0
  br i1 %71, label %72, label %79

72:                                               ; preds = %69
  %73 = load ptr, ptr %10, align 8
  %74 = load i32, ptr %9, align 4
  %75 = load ptr, ptr %8, align 8
  %76 = load i32, ptr %11, align 4
  %77 = call ptr @proto_tree_add_string(ptr noundef %73, i32 noundef %74, ptr noundef %75, i32 noundef %76, i32 noundef 4, ptr noundef @.str.106)
  %78 = load i32, ptr %14, align 4
  store i32 %78, ptr %7, align 4
  store i32 1, ptr %20, align 4
  br label %146

79:                                               ; preds = %69
  br label %80

80:                                               ; preds = %113, %79
  %81 = load i64, ptr %17, align 8
  %82 = load i32, ptr %15, align 4
  %83 = zext i32 %82 to i64
  %84 = icmp ult i64 %81, %83
  br i1 %84, label %85, label %116

85:                                               ; preds = %80
  %86 = load ptr, ptr %8, align 8
  %87 = load i32, ptr %14, align 4
  %88 = call zeroext i8 @tvb_get_uint8(ptr noundef %86, i32 noundef %87)
  store i8 %88, ptr %18, align 1
  %89 = load ptr, ptr @g_ascii_table, align 8
  %90 = load i8, ptr %18, align 1
  %91 = zext i8 %90 to i64
  %92 = getelementptr i16, ptr %89, i64 %91
  %93 = load i16, ptr %92, align 2
  %94 = zext i16 %93 to i32
  %95 = and i32 %94, 64
  %96 = icmp ne i32 %95, 0
  br i1 %96, label %97, label %102

97:                                               ; preds = %85
  %98 = load i8, ptr %18, align 1
  %99 = load i64, ptr %17, align 8
  %100 = add i64 %99, 1
  store i64 %100, ptr %17, align 8
  %101 = getelementptr [1024 x i8], ptr %16, i64 0, i64 %99
  store i8 %98, ptr %101, align 1
  br label %113

102:                                              ; preds = %85
  %103 = load i8, ptr %18, align 1
  %104 = icmp ne i8 %103, 0
  br i1 %104, label %105, label %109

105:                                              ; preds = %102
  %106 = load i64, ptr %17, align 8
  %107 = add i64 %106, 1
  store i64 %107, ptr %17, align 8
  %108 = getelementptr [1024 x i8], ptr %16, i64 0, i64 %106
  store i8 46, ptr %108, align 1
  br label %112

109:                                              ; preds = %102
  %110 = load i32, ptr %15, align 4
  %111 = add i32 %110, -1
  store i32 %111, ptr %15, align 4
  br label %112

112:                                              ; preds = %109, %105
  br label %113

113:                                              ; preds = %112, %97
  %114 = load i32, ptr %14, align 4
  %115 = add i32 %114, 1
  store i32 %115, ptr %14, align 4
  br label %80, !llvm.loop !11

116:                                              ; preds = %80
  %117 = load i64, ptr %17, align 8
  %118 = getelementptr [1024 x i8], ptr %16, i64 0, i64 %117
  store i8 0, ptr %118, align 1
  %119 = load i32, ptr %13, align 4
  %120 = icmp eq i32 %119, 0
  br i1 %120, label %121, label %135

121:                                              ; preds = %116
  %122 = load i8, ptr %12, align 1, !range !9, !noundef !10
  %123 = trunc i8 %122 to i1
  br i1 %123, label %124, label %128

124:                                              ; preds = %121
  %125 = load ptr, ptr %8, align 8
  %126 = load i32, ptr %11, align 4
  %127 = call i32 @tvb_get_letohl(ptr noundef %125, i32 noundef %126)
  store i32 %127, ptr %15, align 4
  br label %132

128:                                              ; preds = %121
  %129 = load ptr, ptr %8, align 8
  %130 = load i32, ptr %11, align 4
  %131 = call i32 @tvb_get_ntohl(ptr noundef %129, i32 noundef %130)
  store i32 %131, ptr %15, align 4
  br label %132

132:                                              ; preds = %128, %124
  %133 = load i32, ptr %11, align 4
  %134 = add i32 %133, 4
  store i32 %134, ptr %11, align 4
  br label %137

135:                                              ; preds = %116
  %136 = load i32, ptr %13, align 4
  store i32 %136, ptr %15, align 4
  br label %137

137:                                              ; preds = %135, %132
  %138 = load ptr, ptr %10, align 8
  %139 = load i32, ptr %9, align 4
  %140 = load ptr, ptr %8, align 8
  %141 = load i32, ptr %11, align 4
  %142 = load i32, ptr %15, align 4
  %143 = getelementptr inbounds [1024 x i8], ptr %16, i64 0, i64 0
  %144 = call ptr @proto_tree_add_string(ptr noundef %138, i32 noundef %139, ptr noundef %140, i32 noundef %141, i32 noundef %142, ptr noundef %143)
  %145 = load i32, ptr %14, align 4
  store i32 %145, ptr %7, align 4
  store i32 1, ptr %20, align 4
  br label %146

146:                                              ; preds = %137, %72, %57, %47
  call void @llvm.lifetime.end.p0(i64 4, ptr %19) #3
  call void @llvm.lifetime.end.p0(i64 1, ptr %18) #3
  call void @llvm.lifetime.end.p0(i64 8, ptr %17) #3
  call void @llvm.lifetime.end.p0(i64 1024, ptr %16) #3
  call void @llvm.lifetime.end.p0(i64 4, ptr %15) #3
  call void @llvm.lifetime.end.p0(i64 4, ptr %14) #3
  %147 = load i32, ptr %7, align 4
  ret i32 %147
}