; Function Attrs: null_pointer_is_valid sspstrong uwtable
define internal fastcc i32 @sss_string(ptr noundef %0, i32 noundef %1, ptr noundef %2, i32 noundef %3, i32 noundef %4) unnamed_addr #0 {
  %6 = alloca [1024 x i8], align 16
  call void @llvm.lifetime.start.p0(i64 1024, ptr nonnull %6) #3
  %7 = icmp eq i32 %4, 0
  br i1 %7, label %8, label %11

8:                                                ; preds = %5
  %9 = tail call i32 @tvb_get_letohl(ptr noundef %0, i32 noundef %3)
  %10 = add i32 %3, 4
  br label %11

11:                                               ; preds = %5, %8
  %.062 = phi i32 [ %10, %8 ], [ %3, %5 ]
  %.161 = phi i32 [ %9, %8 ], [ %4, %5 ]
  %12 = tail call i32 @tvb_captured_length_remaining(ptr noundef %0, i32 noundef %.062)
  %13 = icmp slt i32 %12, 1
  br i1 %13, label %52, label %14

14:                                               ; preds = %11
  %15 = icmp ugt i32 %.161, %12
  %16 = icmp ugt i32 %.161, 1023
  %or.cond = or i1 %16, %15
  br i1 %or.cond, label %17, label %21

17:                                               ; preds = %14
  %18 = add nuw i32 %12, 4
  %19 = tail call ptr @proto_tree_add_string(ptr noundef %2, i32 noundef %1, ptr noundef %0, i32 noundef %.062, i32 noundef %18, ptr noundef nonnull @.str.105)
  %20 = add i32 %12, %.062
  br label %52

21:                                               ; preds = %14
  %22 = icmp eq i32 %.161, 0
  br i1 %22, label %24, label %.preheader

.preheader:                                       ; preds = %21
  %23 = load ptr, ptr @g_ascii_table, align 8
  br label %26

24:                                               ; preds = %21
  %25 = tail call ptr @proto_tree_add_string(ptr noundef %2, i32 noundef %1, ptr noundef %0, i32 noundef %3, i32 noundef 4, ptr noundef nonnull @.str.106)
  br label %52

26:                                               ; preds = %.preheader, %41
  %.05970 = phi i64 [ 0, %.preheader ], [ %.1, %41 ]
  %.269 = phi i32 [ %.161, %.preheader ], [ %.3, %41 ]
  %.16368 = phi i32 [ %.062, %.preheader ], [ %42, %41 ]
  %27 = tail call zeroext i8 @tvb_get_uint8(ptr noundef %0, i32 noundef %.16368)
  %28 = zext i8 %27 to i64
  %29 = getelementptr i16, ptr %23, i64 %28
  %30 = load i16, ptr %29, align 2
  %31 = and i16 %30, 64
  %.not = icmp eq i16 %31, 0
  br i1 %.not, label %35, label %32

32:                                               ; preds = %26
  %33 = add nuw nsw i64 %.05970, 1
  %34 = getelementptr [1024 x i8], ptr %6, i64 0, i64 %.05970
  store i8 %27, ptr %34, align 1
  br label %41

35:                                               ; preds = %26
  %.not67 = icmp eq i8 %27, 0
  br i1 %.not67, label %39, label %36

36:                                               ; preds = %35
  %37 = add nuw nsw i64 %.05970, 1
  %38 = getelementptr [1024 x i8], ptr %6, i64 0, i64 %.05970
  store i8 46, ptr %38, align 1
  br label %41

39:                                               ; preds = %35
  %40 = add i32 %.269, -1
  br label %41

41:                                               ; preds = %36, %39, %32
  %.3 = phi i32 [ %.269, %32 ], [ %.269, %36 ], [ %40, %39 ]
  %.1 = phi i64 [ %33, %32 ], [ %37, %36 ], [ %.05970, %39 ]
  %42 = add i32 %.16368, 1
  %43 = zext i32 %.3 to i64
  %44 = icmp samesign ult i64 %.1, %43
  br i1 %44, label %26, label %45, !llvm.loop !9

45:                                               ; preds = %41
  %46 = getelementptr [1024 x i8], ptr %6, i64 0, i64 %.1
  store i8 0, ptr %46, align 1
  br i1 %7, label %47, label %50

47:                                               ; preds = %45
  %48 = tail call i32 @tvb_get_letohl(ptr noundef %0, i32 noundef %3)
  %49 = add i32 %3, 4
  br label %50

50:                                               ; preds = %45, %47
  %.5 = phi i32 [ %48, %47 ], [ %4, %45 ]
  %.058 = phi i32 [ %49, %47 ], [ %3, %45 ]
  %51 = call ptr @proto_tree_add_string(ptr noundef %2, i32 noundef %1, ptr noundef %0, i32 noundef %.058, i32 noundef %.5, ptr noundef nonnull %6)
  br label %52

52:                                               ; preds = %11, %50, %24, %17
  %.0 = phi i32 [ %20, %17 ], [ %.062, %24 ], [ %42, %50 ], [ %.062, %11 ]
  call void @llvm.lifetime.end.p0(i64 1024, ptr nonnull %6) #3
  ret i32 %.0
}